; Function Attrs: mustprogress noreturn uwtable
define dso_local void @__cxa_rethrow() local_unnamed_addr #10 personality ptr @__gxx_personality_v0 {
  %1 = tail call ptr @__cxa_get_globals()
  %2 = load ptr, ptr %1, align 8, !tbaa !15
  %3 = icmp eq ptr %2, null
  br i1 %3, label %4, label %5

4:                                                ; preds = %0
  tail call void @_ZSt9terminatev() #16
  unreachable

5:                                                ; preds = %0
  %6 = getelementptr inbounds nuw i8, ptr %2, i64 96
  %.0.copyload.i.i = load i64, ptr %6, align 16
  %7 = and i64 %.0.copyload.i.i, -256
  %8 = icmp eq i64 %7, 4849336966747728640
  br i1 %8, label %9, label %16

9:                                                ; preds = %5
  %10 = getelementptr inbounds nuw i8, ptr %2, i64 56
  %11 = load i32, ptr %10, align 8, !tbaa !4
  %12 = sub nsw i32 0, %11
  store i32 %12, ptr %10, align 8, !tbaa !4
  %13 = getelementptr inbounds nuw i8, ptr %1, i64 8
  %14 = load i32, ptr %13, align 8, !tbaa !18
  %15 = add i32 %14, 1
  store i32 %15, ptr %13, align 8, !tbaa !18
  br label %17

16:                                               ; preds = %5
  store ptr null, ptr %1, align 8, !tbaa !15
  br label %17

17:                                               ; preds = %16, %9
  %18 = tail call i32 @_Unwind_RaiseException(ptr noundef nonnull %6)
  %.0.copyload.i.i.i = load i64, ptr %6, align 16
  %19 = invoke ptr @__cxa_get_globals()
          to label %20 unwind label %38

20:                                               ; preds = %17
  %21 = and i64 %.0.copyload.i.i.i, -256
  %22 = icmp eq i64 %21, 4849336966747728640
  br i1 %22, label %23, label %34

23:                                               ; preds = %20
  %24 = getelementptr inbounds nuw i8, ptr %2, i64 56
  %25 = load i32, ptr %24, align 8, !tbaa !4
  %.p.i = tail call i32 @llvm.abs.i32(i32 %25, i1 false)
  %26 = add nuw i32 %.p.i, 1
  store i32 %26, ptr %24, align 8, !tbaa !4
  %27 = load ptr, ptr %19, align 8, !tbaa !15
  %.not23.i = icmp eq ptr %2, %27
  br i1 %.not23.i, label %30, label %28

28:                                               ; preds = %23
  %29 = getelementptr inbounds nuw i8, ptr %2, i64 48
  store ptr %27, ptr %29, align 16, !tbaa !17
  store ptr %2, ptr %19, align 8, !tbaa !15
  br label %30

30:                                               ; preds = %28, %23
  %31 = getelementptr inbounds nuw i8, ptr %19, i64 8
  %32 = load i32, ptr %31, align 8, !tbaa !18
  %33 = add i32 %32, -1
  store i32 %33, ptr %31, align 8, !tbaa !18
  br label %__cxa_begin_catch.exit

34:                                               ; preds = %20
  %35 = load ptr, ptr %19, align 8, !tbaa !15
  %.not.i = icmp eq ptr %35, null
  br i1 %.not.i, label %37, label %36

36:                                               ; preds = %34
  tail call void @_ZSt9terminatev() #16
  unreachable

37:                                               ; preds = %34
  store ptr %2, ptr %19, align 8, !tbaa !15
  br label %__cxa_begin_catch.exit

38:                                               ; preds = %17
  %39 = landingpad { ptr, i32 }
          catch ptr null
  %40 = extractvalue { ptr, i32 } %39, 0
  tail call void @__clang_call_terminate(ptr %40) #19
  unreachable

__cxa_begin_catch.exit:                           ; preds = %30, %37
  br i1 %8, label %41, label %44

41:                                               ; preds = %__cxa_begin_catch.exit
  %42 = getelementptr inbounds nuw i8, ptr %2, i64 40
  %43 = load ptr, ptr %42, align 8, !tbaa !22
  tail call void @_ZSt11__terminatePFvvE(ptr noundef %43) #16
  unreachable

44:                                               ; preds = %__cxa_begin_catch.exit
  tail call void @_ZSt9terminatev() #16
  unreachable
}